target datalayout = "e-m:e-p270:32:32-p271:32:32-p272:64:64-i64:64-i128:128-f80:128-n8:16:32:64-S128"
target triple = "x86_64-pc-linux-gnu"

%struct.wt_status_state = type { i32, i32, i32, i32, i32, i32, i32, i32, i32, i32, ptr, ptr, ptr, ptr, %struct.object_id, %struct.object_id, %struct.object_id }
%struct.object_id = type { [32 x i8], i32 }
%struct.stat = type { i64, i64, i64, i32, i32, i32, i32, i64, i64, i64, i64, %struct.timespec, %struct.timespec, %struct.timespec, [3 x i64] }
%struct.timespec = type { i64, i64 }

@the_repository = external global ptr, align 8
@.str.11 = private unnamed_addr constant [13 x i8] c"rebase-apply\00", align 1
@.str.12 = private unnamed_addr constant [22 x i8] c"rebase-apply/applying\00", align 1
@.str.13 = private unnamed_addr constant [19 x i8] c"rebase-apply/patch\00", align 1
@.str.14 = private unnamed_addr constant [23 x i8] c"rebase-apply/head-name\00", align 1
@.str.15 = private unnamed_addr constant [18 x i8] c"rebase-apply/onto\00", align 1
@.str.16 = private unnamed_addr constant [13 x i8] c"rebase-merge\00", align 1
@.str.17 = private unnamed_addr constant [25 x i8] c"rebase-merge/interactive\00", align 1
@.str.18 = private unnamed_addr constant [23 x i8] c"rebase-merge/head-name\00", align 1
@.str.19 = private unnamed_addr constant [18 x i8] c"rebase-merge/onto\00", align 1

; Function Attrs: nounwind uwtable
define dso_local i32 @wt_status_check_rebase(ptr noundef %0, ptr noundef %1) #0 {
  %3 = alloca i32, align 4
  %4 = alloca ptr, align 8
  %5 = alloca ptr, align 8
  %6 = alloca %struct.stat, align 8
  %7 = alloca i32, align 4
  store ptr %0, ptr %4, align 8, !tbaa !189
  store ptr %1, ptr %5, align 8, !tbaa !174
  call void @llvm.lifetime.start.p0(i64 144, ptr %6) #12
  %8 = load ptr, ptr @the_repository, align 8, !tbaa !33
  %9 = load ptr, ptr %4, align 8, !tbaa !189
  %10 = call ptr (ptr, ptr, ptr, ...) @worktree_git_path(ptr noundef %8, ptr noundef %9, ptr noundef @.str.11)
  %11 = call i32 @stat64(ptr noundef %10, ptr noundef %6) #12
  %12 = icmp ne i32 %11, 0
  br i1 %12, label %47, label %13

13:                                               ; preds = %2
  %14 = load ptr, ptr @the_repository, align 8, !tbaa !33
  %15 = load ptr, ptr %4, align 8, !tbaa !189
  %16 = call ptr (ptr, ptr, ptr, ...) @worktree_git_path(ptr noundef %14, ptr noundef %15, ptr noundef @.str.12)
  %17 = call i32 @stat64(ptr noundef %16, ptr noundef %6) #12
  %18 = icmp ne i32 %17, 0
  br i1 %18, label %35, label %19

19:                                               ; preds = %13
  %20 = load ptr, ptr %5, align 8, !tbaa !174
  %21 = getelementptr inbounds nuw %struct.wt_status_state, ptr %20, i32 0, i32 1
  store i32 1, ptr %21, align 4, !tbaa !191
  %22 = load ptr, ptr @the_repository, align 8, !tbaa !33
  %23 = load ptr, ptr %4, align 8, !tbaa !189
  %24 = call ptr (ptr, ptr, ptr, ...) @worktree_git_path(ptr noundef %22, ptr noundef %23, ptr noundef @.str.13)
  %25 = call i32 @stat64(ptr noundef %24, ptr noundef %6) #12
  %26 = icmp ne i32 %25, 0
  br i1 %26, label %34, label %27

27:                                               ; preds = %19
  %28 = getelementptr inbounds nuw %struct.stat, ptr %6, i32 0, i32 8
  %29 = load i64, ptr %28, align 8, !tbaa !192
  %30 = icmp ne i64 %29, 0
  br i1 %30, label %34, label %31

31:                                               ; preds = %27
  %32 = load ptr, ptr %5, align 8, !tbaa !174
  %33 = getelementptr inbounds nuw %struct.wt_status_state, ptr %32, i32 0, i32 2
  store i32 1, ptr %33, align 8, !tbaa !195
  br label %34

34:                                               ; preds = %31, %27, %19
  br label %46

35:                                               ; preds = %13
  %36 = load ptr, ptr %5, align 8, !tbaa !174
  %37 = getelementptr inbounds nuw %struct.wt_status_state, ptr %36, i32 0, i32 3
  store i32 1, ptr %37, align 4, !tbaa !196
  %38 = load ptr, ptr %4, align 8, !tbaa !189
  %39 = call ptr @get_branch(ptr noundef %38, ptr noundef @.str.14)
  %40 = load ptr, ptr %5, align 8, !tbaa !174
  %41 = getelementptr inbounds nuw %struct.wt_status_state, ptr %40, i32 0, i32 10
  store ptr %39, ptr %41, align 8, !tbaa !182
  %42 = load ptr, ptr %4, align 8, !tbaa !189
  %43 = call ptr @get_branch(ptr noundef %42, ptr noundef @.str.15)
  %44 = load ptr, ptr %5, align 8, !tbaa !174
  %45 = getelementptr inbounds nuw %struct.wt_status_state, ptr %44, i32 0, i32 11
  store ptr %43, ptr %45, align 8, !tbaa !183
  br label %46

46:                                               ; preds = %35, %34
  br label %76

47:                                               ; preds = %2
  %48 = load ptr, ptr @the_repository, align 8, !tbaa !33
  %49 = load ptr, ptr %4, align 8, !tbaa !189
  %50 = call ptr (ptr, ptr, ptr, ...) @worktree_git_path(ptr noundef %48, ptr noundef %49, ptr noundef @.str.16)
  %51 = call i32 @stat64(ptr noundef %50, ptr noundef %6) #12
  %52 = icmp ne i32 %51, 0
  br i1 %52, label %74, label %53

53:                                               ; preds = %47
  %54 = load ptr, ptr @the_repository, align 8, !tbaa !33
  %55 = load ptr, ptr %4, align 8, !tbaa !189
  %56 = call ptr (ptr, ptr, ptr, ...) @worktree_git_path(ptr noundef %54, ptr noundef %55, ptr noundef @.str.17)
  %57 = call i32 @stat64(ptr noundef %56, ptr noundef %6) #12
  %58 = icmp ne i32 %57, 0
  br i1 %58, label %62, label %59

59:                                               ; preds = %53
  %60 = load ptr, ptr %5, align 8, !tbaa !174
  %61 = getelementptr inbounds nuw %struct.wt_status_state, ptr %60, i32 0, i32 4
  store i32 1, ptr %61, align 8, !tbaa !197
  br label %65

62:                                               ; preds = %53
  %63 = load ptr, ptr %5, align 8, !tbaa !174
  %64 = getelementptr inbounds nuw %struct.wt_status_state, ptr %63, i32 0, i32 3
  store i32 1, ptr %64, align 4, !tbaa !196
  br label %65

65:                                               ; preds = %62, %59
  %66 = load ptr, ptr %4, align 8, !tbaa !189
  %67 = call ptr @get_branch(ptr noundef %66, ptr noundef @.str.18)
  %68 = load ptr, ptr %5, align 8, !tbaa !174
  %69 = getelementptr inbounds nuw %struct.wt_status_state, ptr %68, i32 0, i32 10
  store ptr %67, ptr %69, align 8, !tbaa !182
  %70 = load ptr, ptr %4, align 8, !tbaa !189
  %71 = call ptr @get_branch(ptr noundef %70, ptr noundef @.str.19)
  %72 = load ptr, ptr %5, align 8, !tbaa !174
  %73 = getelementptr inbounds nuw %struct.wt_status_state, ptr %72, i32 0, i32 11
  store ptr %71, ptr %73, align 8, !tbaa !183
  br label %75

74:                                               ; preds = %47
  store i32 0, ptr %3, align 4
  store i32 1, ptr %7, align 4
  br label %77

75:                                               ; preds = %65
  br label %76

76:                                               ; preds = %75, %46
  store i32 1, ptr %3, align 4
  store i32 1, ptr %7, align 4
  br label %77

77:                                               ; preds = %76, %74
  call void @llvm.lifetime.end.p0(i64 144, ptr %6) #12
  %78 = load i32, ptr %3, align 4
  ret i32 %78
}