; Function Attrs: nounwind uwtable
define dso_local range(i32 0, 2) i32 @wt_status_check_rebase(ptr noundef %0, ptr noundef writeonly captures(none) %1) local_unnamed_addr #0 {
  %3 = alloca %struct.stat, align 8
  call void @llvm.lifetime.start.p0(i64 144, ptr nonnull %3) #20
  %4 = load ptr, ptr @the_repository, align 8, !tbaa !33
  %5 = tail call ptr (ptr, ptr, ptr, ...) @worktree_git_path(ptr noundef %4, ptr noundef %0, ptr noundef nonnull @.str.11) #20
  %6 = call i32 @stat64(ptr noundef %5, ptr noundef nonnull %3) #20
  %.not = icmp eq i32 %6, 0
  %7 = load ptr, ptr @the_repository, align 8, !tbaa !33
  br i1 %.not, label %8, label %28

8:                                                ; preds = %2
  %9 = tail call ptr (ptr, ptr, ptr, ...) @worktree_git_path(ptr noundef %7, ptr noundef %0, ptr noundef nonnull @.str.12) #20
  %10 = call i32 @stat64(ptr noundef %9, ptr noundef nonnull %3) #20
  %.not20 = icmp eq i32 %10, 0
  br i1 %.not20, label %11, label %22

11:                                               ; preds = %8
  %12 = getelementptr inbounds nuw i8, ptr %1, i64 4
  store i32 1, ptr %12, align 4, !tbaa !185
  %13 = load ptr, ptr @the_repository, align 8, !tbaa !33
  %14 = tail call ptr (ptr, ptr, ptr, ...) @worktree_git_path(ptr noundef %13, ptr noundef %0, ptr noundef nonnull @.str.13) #20
  %15 = call i32 @stat64(ptr noundef %14, ptr noundef nonnull %3) #20
  %16 = icmp ne i32 %15, 0
  %17 = getelementptr inbounds nuw i8, ptr %3, i64 48
  %18 = load i64, ptr %17, align 8
  %19 = icmp ne i64 %18, 0
  %or.cond = select i1 %16, i1 true, i1 %19
  br i1 %or.cond, label %44, label %20

20:                                               ; preds = %11
  %21 = getelementptr inbounds nuw i8, ptr %1, i64 8
  store i32 1, ptr %21, align 8, !tbaa !186
  br label %44

22:                                               ; preds = %8
  %23 = getelementptr inbounds nuw i8, ptr %1, i64 12
  store i32 1, ptr %23, align 4, !tbaa !187
  %24 = tail call fastcc ptr @get_branch(ptr noundef %0, ptr noundef nonnull @.str.14)
  %25 = getelementptr inbounds nuw i8, ptr %1, i64 40
  store ptr %24, ptr %25, align 8, !tbaa !182
  %26 = tail call fastcc ptr @get_branch(ptr noundef %0, ptr noundef nonnull @.str.15)
  %27 = getelementptr inbounds nuw i8, ptr %1, i64 48
  store ptr %26, ptr %27, align 8, !tbaa !183
  br label %44

28:                                               ; preds = %2
  %29 = tail call ptr (ptr, ptr, ptr, ...) @worktree_git_path(ptr noundef %7, ptr noundef %0, ptr noundef nonnull @.str.16) #20
  %30 = call i32 @stat64(ptr noundef %29, ptr noundef nonnull %3) #20
  %.not21 = icmp eq i32 %30, 0
  br i1 %.not21, label %31, label %44

31:                                               ; preds = %28
  %32 = load ptr, ptr @the_repository, align 8, !tbaa !33
  %33 = tail call ptr (ptr, ptr, ptr, ...) @worktree_git_path(ptr noundef %32, ptr noundef %0, ptr noundef nonnull @.str.17) #20
  %34 = call i32 @stat64(ptr noundef %33, ptr noundef nonnull %3) #20
  %.not22 = icmp eq i32 %34, 0
  br i1 %.not22, label %35, label %37

35:                                               ; preds = %31
  %36 = getelementptr inbounds nuw i8, ptr %1, i64 16
  store i32 1, ptr %36, align 8, !tbaa !188
  br label %39

37:                                               ; preds = %31
  %38 = getelementptr inbounds nuw i8, ptr %1, i64 12
  store i32 1, ptr %38, align 4, !tbaa !187
  br label %39

39:                                               ; preds = %37, %35
  %40 = tail call fastcc ptr @get_branch(ptr noundef %0, ptr noundef nonnull @.str.18)
  %41 = getelementptr inbounds nuw i8, ptr %1, i64 40
  store ptr %40, ptr %41, align 8, !tbaa !182
  %42 = tail call fastcc ptr @get_branch(ptr noundef %0, ptr noundef nonnull @.str.19)
  %43 = getelementptr inbounds nuw i8, ptr %1, i64 48
  store ptr %42, ptr %43, align 8, !tbaa !183
  br label %44

44:                                               ; preds = %39, %11, %20, %22, %28
  %.0 = phi i32 [ 0, %28 ], [ 1, %22 ], [ 1, %20 ], [ 1, %11 ], [ 1, %39 ]
  call void @llvm.lifetime.end.p0(i64 144, ptr nonnull %3) #20
  ret i32 %.0
}